target datalayout = "e-m:e-p270:32:32-p271:32:32-p272:64:64-i64:64-i128:128-f80:128-n8:16:32:64-S128"
target triple = "x86_64-pc-linux-gnu"

%class.Moves = type { i32, i32, i32, i32, i32, i32, i32, i32, i32, [13 x %"struct.Moves::trackType"], ptr, [13 x [4 x %struct.movePlyType]], ptr, [13 x [4 x i32]], [13 x %"class.std::__cxx11::basic_string"], [13 x [4 x %"struct.Moves::moveStatType"]], [13 x [4 x %"struct.Moves::moveStatType"]], [13 x [4 x %"struct.Moves::moveStatsType"]], [13 x [4 x %"struct.Moves::moveStatsType"]], %"struct.Moves::moveStatsType", %"struct.Moves::moveStatsType", [16 x { i64, i64 }] }
%"struct.Moves::trackType" = type { i32, i32, [4 x i32], [4 x i32], %struct.trickDataType, [4 x %struct.extCard], [4 x i32], [4 x [4 x i32]], [4 x i32] }
%struct.trickDataType = type { [4 x i32], i32, i32, i32, i32, i32 }
%struct.extCard = type { i32, i32, i32 }
%struct.movePlyType = type { [14 x %struct.moveType], i32, i32 }
%struct.moveType = type { i32, i32, i32, i32 }
%"class.std::__cxx11::basic_string" = type { %"struct.std::__cxx11::basic_string<char>::_Alloc_hider", i64, %union.anon }
%"struct.std::__cxx11::basic_string<char>::_Alloc_hider" = type { ptr }
%union.anon = type { i64, [8 x i8] }
%"struct.Moves::moveStatType" = type { i32, i32, i32, i32 }
%"struct.Moves::moveStatsType" = type { i32, [13 x %"struct.Moves::moveStatType"] }

@bitMapRank = external global [16 x i16], align 16

; Function Attrs: mustprogress nounwind uwtable
define void @_ZN5Moves4InitEiiPKiS1_PA4_Ktii(ptr noundef nonnull align 8 dereferenceable(39992) %0, i32 noundef %1, i32 noundef %2, ptr noundef %3, ptr noundef %4, ptr noundef %5, i32 noundef %6, i32 noundef %7) #5 align 2 {
  %9 = alloca ptr, align 8
  %10 = alloca i32, align 4
  %11 = alloca i32, align 4
  %12 = alloca ptr, align 8
  %13 = alloca ptr, align 8
  %14 = alloca ptr, align 8
  %15 = alloca i32, align 4
  %16 = alloca i32, align 4
  %17 = alloca i32, align 4
  %18 = alloca i32, align 4
  %19 = alloca i32, align 4
  %20 = alloca i32, align 4
  %21 = alloca i32, align 4
  %22 = alloca i32, align 4
  %23 = alloca i32, align 4
  %24 = alloca i32, align 4
  store ptr %0, ptr %9, align 8
  store i32 %1, ptr %10, align 4
  store i32 %2, ptr %11, align 4
  store ptr %3, ptr %12, align 8
  store ptr %4, ptr %13, align 8
  store ptr %5, ptr %14, align 8
  store i32 %6, ptr %15, align 4
  store i32 %7, ptr %16, align 4
  %25 = load ptr, ptr %9, align 8
  %26 = load i32, ptr %10, align 4
  %27 = getelementptr inbounds nuw %class.Moves, ptr %25, i32 0, i32 4
  store i32 %26, ptr %27, align 8
  %28 = load i32, ptr %15, align 4
  %29 = getelementptr inbounds nuw %class.Moves, ptr %25, i32 0, i32 5
  store i32 %28, ptr %29, align 4
  %30 = load i32, ptr %11, align 4
  %31 = icmp eq i32 %30, 0
  br i1 %31, label %32, label %39

32:                                               ; preds = %8
  %33 = load i32, ptr %16, align 4
  %34 = getelementptr inbounds nuw %class.Moves, ptr %25, i32 0, i32 9
  %35 = load i32, ptr %10, align 4
  %36 = sext i32 %35 to i64
  %37 = getelementptr inbounds [13 x %"struct.Moves::trackType"], ptr %34, i64 0, i64 %36
  %38 = getelementptr inbounds nuw %"struct.Moves::trackType", ptr %37, i32 0, i32 0
  store i32 %33, ptr %38, align 4
  br label %39

39:                                               ; preds = %32, %8
  store i32 0, ptr %17, align 4
  br label %40

40:                                               ; preds = %68, %39
  %41 = load i32, ptr %17, align 4
  %42 = icmp slt i32 %41, 13
  br i1 %42, label %43, label %71

43:                                               ; preds = %40
  store i32 0, ptr %18, align 4
  br label %44

44:                                               ; preds = %64, %43
  %45 = load i32, ptr %18, align 4
  %46 = icmp slt i32 %45, 4
  br i1 %46, label %47, label %67

47:                                               ; preds = %44
  %48 = getelementptr inbounds nuw %class.Moves, ptr %25, i32 0, i32 11
  %49 = load i32, ptr %17, align 4
  %50 = sext i32 %49 to i64
  %51 = getelementptr inbounds [13 x [4 x %struct.movePlyType]], ptr %48, i64 0, i64 %50
  %52 = load i32, ptr %18, align 4
  %53 = sext i32 %52 to i64
  %54 = getelementptr inbounds [4 x %struct.movePlyType], ptr %51, i64 0, i64 %53
  %55 = getelementptr inbounds nuw %struct.movePlyType, ptr %54, i32 0, i32 1
  store i32 0, ptr %55, align 8
  %56 = getelementptr inbounds nuw %class.Moves, ptr %25, i32 0, i32 11
  %57 = load i32, ptr %17, align 4
  %58 = sext i32 %57 to i64
  %59 = getelementptr inbounds [13 x [4 x %struct.movePlyType]], ptr %56, i64 0, i64 %58
  %60 = load i32, ptr %18, align 4
  %61 = sext i32 %60 to i64
  %62 = getelementptr inbounds [4 x %struct.movePlyType], ptr %59, i64 0, i64 %61
  %63 = getelementptr inbounds nuw %struct.movePlyType, ptr %62, i32 0, i32 2
  store i32 0, ptr %63, align 4
  br label %64

64:                                               ; preds = %47
  %65 = load i32, ptr %18, align 4
  %66 = add nsw i32 %65, 1
  store i32 %66, ptr %18, align 4
  br label %44, !llvm.loop !50

67:                                               ; preds = %44
  br label %68

68:                                               ; preds = %67
  %69 = load i32, ptr %17, align 4
  %70 = add nsw i32 %69, 1
  store i32 %70, ptr %17, align 4
  br label %40, !llvm.loop !51

71:                                               ; preds = %40
  store i32 0, ptr %19, align 4
  br label %72

72:                                               ; preds = %84, %71
  %73 = load i32, ptr %19, align 4
  %74 = icmp slt i32 %73, 4
  br i1 %74, label %75, label %87

75:                                               ; preds = %72
  %76 = getelementptr inbounds nuw %class.Moves, ptr %25, i32 0, i32 9
  %77 = load i32, ptr %10, align 4
  %78 = sext i32 %77 to i64
  %79 = getelementptr inbounds [13 x %"struct.Moves::trackType"], ptr %76, i64 0, i64 %78
  %80 = getelementptr inbounds nuw %"struct.Moves::trackType", ptr %79, i32 0, i32 8
  %81 = load i32, ptr %19, align 4
  %82 = sext i32 %81 to i64
  %83 = getelementptr inbounds [4 x i32], ptr %80, i64 0, i64 %82
  store i32 65535, ptr %83, align 4
  br label %84

84:                                               ; preds = %75
  %85 = load i32, ptr %19, align 4
  %86 = add nsw i32 %85, 1
  store i32 %86, ptr %19, align 4
  br label %72, !llvm.loop !52

87:                                               ; preds = %72
  store i32 0, ptr %20, align 4
  br label %88

88:                                               ; preds = %119, %87
  %89 = load i32, ptr %20, align 4
  %90 = icmp slt i32 %89, 4
  br i1 %90, label %91, label %122

91:                                               ; preds = %88
  store i32 0, ptr %21, align 4
  br label %92

92:                                               ; preds = %115, %91
  %93 = load i32, ptr %21, align 4
  %94 = icmp slt i32 %93, 4
  br i1 %94, label %95, label %118

95:                                               ; preds = %92
  %96 = load ptr, ptr %14, align 8
  %97 = load i32, ptr %20, align 4
  %98 = sext i32 %97 to i64
  %99 = getelementptr inbounds [4 x i16], ptr %96, i64 %98
  %100 = load i32, ptr %21, align 4
  %101 = sext i32 %100 to i64
  %102 = getelementptr inbounds [4 x i16], ptr %99, i64 0, i64 %101
  %103 = load i16, ptr %102, align 2
  %104 = zext i16 %103 to i32
  %105 = getelementptr inbounds nuw %class.Moves, ptr %25, i32 0, i32 9
  %106 = load i32, ptr %10, align 4
  %107 = sext i32 %106 to i64
  %108 = getelementptr inbounds [13 x %"struct.Moves::trackType"], ptr %105, i64 0, i64 %107
  %109 = getelementptr inbounds nuw %"struct.Moves::trackType", ptr %108, i32 0, i32 8
  %110 = load i32, ptr %21, align 4
  %111 = sext i32 %110 to i64
  %112 = getelementptr inbounds [4 x i32], ptr %109, i64 0, i64 %111
  %113 = load i32, ptr %112, align 4
  %114 = xor i32 %113, %104
  store i32 %114, ptr %112, align 4
  br label %115

115:                                              ; preds = %95
  %116 = load i32, ptr %21, align 4
  %117 = add nsw i32 %116, 1
  store i32 %117, ptr %21, align 4
  br label %92, !llvm.loop !53

118:                                              ; preds = %92
  br label %119

119:                                              ; preds = %118
  %120 = load i32, ptr %20, align 4
  %121 = add nsw i32 %120, 1
  store i32 %121, ptr %20, align 4
  br label %88, !llvm.loop !54

122:                                              ; preds = %88
  store i32 0, ptr %22, align 4
  br label %123

123:                                              ; preds = %153, %122
  %124 = load i32, ptr %22, align 4
  %125 = load i32, ptr %11, align 4
  %126 = icmp slt i32 %124, %125
  br i1 %126, label %127, label %156

127:                                              ; preds = %123
  %128 = load ptr, ptr %13, align 8
  %129 = load i32, ptr %22, align 4
  %130 = sext i32 %129 to i64
  %131 = getelementptr inbounds i32, ptr %128, i64 %130
  %132 = load i32, ptr %131, align 4
  store i32 %132, ptr %23, align 4
  %133 = load ptr, ptr %12, align 8
  %134 = load i32, ptr %22, align 4
  %135 = sext i32 %134 to i64
  %136 = getelementptr inbounds i32, ptr %133, i64 %135
  %137 = load i32, ptr %136, align 4
  store i32 %137, ptr %24, align 4
  %138 = load i32, ptr %24, align 4
  %139 = sext i32 %138 to i64
  %140 = getelementptr inbounds [16 x i16], ptr @bitMapRank, i64 0, i64 %139
  %141 = load i16, ptr %140, align 2
  %142 = zext i16 %141 to i32
  %143 = getelementptr inbounds nuw %class.Moves, ptr %25, i32 0, i32 9
  %144 = load i32, ptr %10, align 4
  %145 = sext i32 %144 to i64
  %146 = getelementptr inbounds [13 x %"struct.Moves::trackType"], ptr %143, i64 0, i64 %145
  %147 = getelementptr inbounds nuw %"struct.Moves::trackType", ptr %146, i32 0, i32 8
  %148 = load i32, ptr %23, align 4
  %149 = sext i32 %148 to i64
  %150 = getelementptr inbounds [4 x i32], ptr %147, i64 0, i64 %149
  %151 = load i32, ptr %150, align 4
  %152 = xor i32 %151, %142
  store i32 %152, ptr %150, align 4
  br label %153

153:                                              ; preds = %127
  %154 = load i32, ptr %22, align 4
  %155 = add nsw i32 %154, 1
  store i32 %155, ptr %22, align 4
  br label %123, !llvm.loop !55

156:                                              ; preds = %123
  ret void
}