; Function Attrs: mustprogress nofree norecurse nosync nounwind memory(read, argmem: readwrite, inaccessiblemem: none) uwtable
define void @_ZN5Moves4InitEiiPKiS1_PA4_Ktii(ptr nocapture noundef nonnull align 8 dereferenceable(39992) %0, i32 noundef %1, i32 noundef %2, ptr nocapture noundef readonly %3, ptr nocapture noundef readonly %4, ptr nocapture noundef readonly %5, i32 noundef %6, i32 noundef %7) local_unnamed_addr #6 align 2 {
  %9 = getelementptr inbounds nuw i8, ptr %0, i64 16
  store i32 %1, ptr %9, align 8
  %10 = getelementptr inbounds nuw i8, ptr %0, i64 20
  store i32 %6, ptr %10, align 4
  %11 = icmp eq i32 %2, 0
  br i1 %11, label %12, label %16

12:                                               ; preds = %8
  %13 = getelementptr inbounds nuw i8, ptr %0, i64 36
  %14 = sext i32 %1 to i64
  %15 = getelementptr inbounds [13 x %"struct.Moves::trackType"], ptr %13, i64 0, i64 %14
  store i32 %7, ptr %15, align 4
  br label %16

16:                                               ; preds = %12, %8
  %17 = getelementptr inbounds nuw i8, ptr %0, i64 2904
  br label %.preheader44

.preheader44:                                     ; preds = %16, %24
  %indvars.iv52 = phi i64 [ 0, %16 ], [ %indvars.iv.next53, %24 ]
  br label %20

.preheader43:                                     ; preds = %24
  %18 = getelementptr inbounds nuw i8, ptr %0, i64 36
  %19 = sext i32 %1 to i64
  br label %25

20:                                               ; preds = %.preheader44, %20
  %indvars.iv = phi i64 [ 0, %.preheader44 ], [ %indvars.iv.next, %20 ]
  %21 = getelementptr inbounds [13 x [4 x %struct.movePlyType]], ptr %17, i64 0, i64 %indvars.iv52, i64 %indvars.iv
  %22 = getelementptr inbounds nuw i8, ptr %21, i64 224
  store i32 0, ptr %22, align 8
  %23 = getelementptr inbounds nuw i8, ptr %21, i64 228
  store i32 0, ptr %23, align 4
  %indvars.iv.next = add nuw nsw i64 %indvars.iv, 1
  %exitcond.not = icmp eq i64 %indvars.iv.next, 4
  br i1 %exitcond.not, label %24, label %20, !llvm.loop !55

24:                                               ; preds = %20
  %indvars.iv.next53 = add nuw nsw i64 %indvars.iv52, 1
  %exitcond55.not = icmp eq i64 %indvars.iv.next53, 13
  br i1 %exitcond55.not, label %.preheader43, label %.preheader44, !llvm.loop !56

25:                                               ; preds = %.preheader43, %25
  %indvars.iv56 = phi i64 [ 0, %.preheader43 ], [ %indvars.iv.next57, %25 ]
  %26 = getelementptr inbounds [13 x %"struct.Moves::trackType"], ptr %18, i64 0, i64 %19, i32 8, i64 %indvars.iv56
  store i32 65535, ptr %26, align 4
  %indvars.iv.next57 = add nuw nsw i64 %indvars.iv56, 1
  %exitcond59.not = icmp eq i64 %indvars.iv.next57, 4
  br i1 %exitcond59.not, label %.preheader41, label %25, !llvm.loop !57

.preheader41:                                     ; preds = %25, %35
  %indvars.iv64 = phi i64 [ %indvars.iv.next65, %35 ], [ 0, %25 ]
  br label %28

.preheader:                                       ; preds = %35
  %27 = icmp sgt i32 %2, 0
  br i1 %27, label %.lr.ph, label %._crit_edge

.lr.ph:                                           ; preds = %.preheader
  %wide.trip.count = zext nneg i32 %2 to i64
  br label %36

28:                                               ; preds = %.preheader41, %28
  %indvars.iv60 = phi i64 [ 0, %.preheader41 ], [ %indvars.iv.next61, %28 ]
  %29 = getelementptr inbounds [4 x i16], ptr %5, i64 %indvars.iv64, i64 %indvars.iv60
  %30 = load i16, ptr %29, align 2
  %31 = zext i16 %30 to i32
  %32 = getelementptr inbounds [13 x %"struct.Moves::trackType"], ptr %18, i64 0, i64 %19, i32 8, i64 %indvars.iv60
  %33 = load i32, ptr %32, align 4
  %34 = xor i32 %33, %31
  store i32 %34, ptr %32, align 4
  %indvars.iv.next61 = add nuw nsw i64 %indvars.iv60, 1
  %exitcond63.not = icmp eq i64 %indvars.iv.next61, 4
  br i1 %exitcond63.not, label %35, label %28, !llvm.loop !58

35:                                               ; preds = %28
  %indvars.iv.next65 = add nuw nsw i64 %indvars.iv64, 1
  %exitcond67.not = icmp eq i64 %indvars.iv.next65, 4
  br i1 %exitcond67.not, label %.preheader, label %.preheader41, !llvm.loop !59

36:                                               ; preds = %.lr.ph, %36
  %indvars.iv68 = phi i64 [ 0, %.lr.ph ], [ %indvars.iv.next69, %36 ]
  %37 = getelementptr inbounds i32, ptr %4, i64 %indvars.iv68
  %38 = load i32, ptr %37, align 4
  %39 = getelementptr inbounds i32, ptr %3, i64 %indvars.iv68
  %40 = load i32, ptr %39, align 4
  %41 = sext i32 %40 to i64
  %42 = getelementptr inbounds [16 x i16], ptr @bitMapRank, i64 0, i64 %41
  %43 = load i16, ptr %42, align 2
  %44 = zext i16 %43 to i32
  %45 = sext i32 %38 to i64
  %46 = getelementptr inbounds [13 x %"struct.Moves::trackType"], ptr %18, i64 0, i64 %19, i32 8, i64 %45
  %47 = load i32, ptr %46, align 4
  %48 = xor i32 %47, %44
  store i32 %48, ptr %46, align 4
  %indvars.iv.next69 = add nuw nsw i64 %indvars.iv68, 1
  %exitcond71.not = icmp eq i64 %indvars.iv.next69, %wide.trip.count
  br i1 %exitcond71.not, label %._crit_edge, label %36, !llvm.loop !60

._crit_edge:                                      ; preds = %36, %.preheader
  ret void
}